; Function Attrs: mustprogress uwtable
define internal fastcc void @_ZN12_GLOBAL__N_111GliftWorker27add_imprecise_GLIFT_logic_3EPKN5Yosys5RTLIL4CellERNS2_7SigSpecES7_S7_(ptr %.64.val, ptr noundef %0, ptr noundef nonnull align 8 dereferenceable(64) %1, ptr noundef nonnull align 8 dereferenceable(64) %2, ptr noundef nonnull align 8 dereferenceable(64) %3) unnamed_addr #4 align 2 personality ptr @__gxx_personality_v0 {
  %5 = alloca %"class.std::allocator", align 1
  %6 = alloca %"struct.Yosys::RTLIL::IdString", align 4
  %7 = alloca %"class.std::__cxx11::basic_string", align 8
  %8 = alloca %"class.std::__cxx11::basic_string", align 8
  %9 = alloca %"class.std::__cxx11::basic_string", align 8
  %10 = getelementptr inbounds i8, ptr %0, i64 72
  call void @llvm.lifetime.start.p0(i64 1, ptr nonnull %5)
  %11 = load i32, ptr %10, align 4, !noalias !301
  %12 = sext i32 %11 to i64
  %13 = load ptr, ptr getelementptr inbounds (%"class.std::vector.184", ptr @_ZN5Yosys5RTLIL8IdString18global_id_storage_E, i64 0, i32 0, i32 0, i32 0, i32 1), align 8, !noalias !301
  %14 = load ptr, ptr @_ZN5Yosys5RTLIL8IdString18global_id_storage_E, align 8, !noalias !301
  %15 = ptrtoint ptr %13 to i64
  %16 = ptrtoint ptr %14 to i64
  %17 = sub i64 %15, %16
  %18 = ashr exact i64 %17, 3
  %.not.i.i.i = icmp ugt i64 %18, %12
  br i1 %.not.i.i.i, label %_ZNSt6vectorIPcSaIS0_EE2atEm.exit.i, label %19

19:                                               ; preds = %4
  tail call void (ptr, ...) @_ZSt24__throw_out_of_range_fmtPKcz(ptr noundef nonnull @.str.87, i64 noundef %12, i64 noundef %18) #24, !noalias !301
  unreachable

_ZNSt6vectorIPcSaIS0_EE2atEm.exit.i:              ; preds = %4
  %20 = getelementptr inbounds ptr, ptr %14, i64 %12
  %21 = load ptr, ptr %20, align 8, !noalias !301
  call void @_ZNSaIcEC1Ev(ptr noundef nonnull align 1 dereferenceable(1) %5) #22, !noalias !301
  invoke void @_ZNSt7__cxx1112basic_stringIcSt11char_traitsIcESaIcEEC1EPKcRKS3_(ptr noundef nonnull align 8 dereferenceable(32) %8, ptr noundef %21, ptr noundef nonnull align 1 dereferenceable(1) %5)
          to label %_ZNK5Yosys5RTLIL8IdString3strB5cxx11Ev.exit unwind label %22

common.resume:                                    ; preds = %57, %22
  %common.resume.op = phi { ptr, i32 } [ %23, %22 ], [ %.pn.pn.pn, %57 ]
  resume { ptr, i32 } %common.resume.op

22:                                               ; preds = %_ZNSt6vectorIPcSaIS0_EE2atEm.exit.i
  %23 = landingpad { ptr, i32 }
          cleanup
  call void @_ZNSaIcED1Ev(ptr noundef nonnull align 1 dereferenceable(1) %5) #22
  br label %common.resume

_ZNK5Yosys5RTLIL8IdString3strB5cxx11Ev.exit:      ; preds = %_ZNSt6vectorIPcSaIS0_EE2atEm.exit.i
  call void @_ZNSaIcED1Ev(ptr noundef nonnull align 1 dereferenceable(1) %5) #22
  call void @llvm.lifetime.end.p0(i64 1, ptr nonnull %5)
  %24 = invoke noundef nonnull align 8 dereferenceable(32) ptr @_ZNSt7__cxx1112basic_stringIcSt11char_traitsIcESaIcEE6appendEPKc(ptr noundef nonnull align 8 dereferenceable(32) %8, ptr noundef nonnull @.str.130)
          to label %25 unwind label %47

25:                                               ; preds = %_ZNK5Yosys5RTLIL8IdString3strB5cxx11Ev.exit
  call void @_ZNSt7__cxx1112basic_stringIcSt11char_traitsIcESaIcEEC1EOS4_(ptr noundef nonnull align 8 dereferenceable(32) %7, ptr noundef nonnull align 8 dereferenceable(32) %24) #22
  %26 = call noundef ptr @_ZNKSt7__cxx1112basic_stringIcSt11char_traitsIcESaIcEE5c_strEv(ptr noundef nonnull align 8 dereferenceable(32) %7) #22
  %27 = invoke noundef i32 @_ZN5Yosys5RTLIL8IdString13get_referenceEPKc(ptr noundef %26)
          to label %28 unwind label %49

28:                                               ; preds = %25
  store i32 %27, ptr %6, align 4
  invoke void @_ZNK5Yosys5RTLIL10AttrObject20get_string_attributeB5cxx11ERKNS0_8IdStringE(ptr dead_on_unwind nonnull writable sret(%"class.std::__cxx11::basic_string") align 8 %9, ptr noundef nonnull align 8 dereferenceable(56) %0, ptr noundef nonnull align 4 dereferenceable(4) @_ZN5Yosys5RTLIL2ID3srcE)
          to label %_ZNK5Yosys5RTLIL10AttrObject17get_src_attributeB5cxx11Ev.exit unwind label %51

_ZNK5Yosys5RTLIL10AttrObject17get_src_attributeB5cxx11Ev.exit: ; preds = %28
  %29 = invoke noundef ptr @_ZN5Yosys5RTLIL6Module5addOrENS0_8IdStringERKNS0_7SigSpecES5_S5_bRKNSt7__cxx1112basic_stringIcSt11char_traitsIcESaIcEEE(ptr noundef nonnull align 8 dereferenceable(560) %.64.val, ptr noundef nonnull %6, ptr noundef nonnull align 8 dereferenceable(64) %1, ptr noundef nonnull align 8 dereferenceable(64) %2, ptr noundef nonnull align 8 dereferenceable(64) %3, i1 noundef zeroext false, ptr noundef nonnull align 8 dereferenceable(32) %9)
          to label %30 unwind label %53

30:                                               ; preds = %_ZNK5Yosys5RTLIL10AttrObject17get_src_attributeB5cxx11Ev.exit
  call void @_ZNSt7__cxx1112basic_stringIcSt11char_traitsIcESaIcEED1Ev(ptr noundef nonnull align 8 dereferenceable(32) %9) #22
  %31 = load i32, ptr %6, align 4
  %32 = load i8, ptr @_ZN5Yosys5RTLIL8IdString17destruct_guard_okE, align 1
  %33 = and i8 %32, 1
  %34 = icmp ne i8 %33, 0
  %35 = icmp ne i32 %31, 0
  %or.cond.i.i = and i1 %35, %34
  br i1 %or.cond.i.i, label %36, label %_ZN5Yosys5RTLIL8IdStringD2Ev.exit

36:                                               ; preds = %30
  %37 = sext i32 %31 to i64
  %38 = load ptr, ptr @_ZN5Yosys5RTLIL8IdString24global_refcount_storage_E, align 8
  %39 = getelementptr inbounds i32, ptr %38, i64 %37
  %40 = load i32, ptr %39, align 4
  %41 = add nsw i32 %40, -1
  store i32 %41, ptr %39, align 4
  %42 = icmp sgt i32 %40, 1
  br i1 %42, label %_ZN5Yosys5RTLIL8IdStringD2Ev.exit, label %43

43:                                               ; preds = %36
  invoke void @_ZN5Yosys5RTLIL8IdString14free_referenceEi(i32 noundef %31)
          to label %_ZN5Yosys5RTLIL8IdStringD2Ev.exit unwind label %44

44:                                               ; preds = %43
  %45 = landingpad { ptr, i32 }
          catch ptr null
  %46 = extractvalue { ptr, i32 } %45, 0
  call void @__clang_call_terminate(ptr %46) #26
  unreachable

_ZN5Yosys5RTLIL8IdStringD2Ev.exit:                ; preds = %30, %36, %43
  call void @_ZNSt7__cxx1112basic_stringIcSt11char_traitsIcESaIcEED1Ev(ptr noundef nonnull align 8 dereferenceable(32) %7) #22
  call void @_ZNSt7__cxx1112basic_stringIcSt11char_traitsIcESaIcEED1Ev(ptr noundef nonnull align 8 dereferenceable(32) %8) #22
  ret void

47:                                               ; preds = %_ZNK5Yosys5RTLIL8IdString3strB5cxx11Ev.exit
  %48 = landingpad { ptr, i32 }
          cleanup
  br label %57

49:                                               ; preds = %25
  %50 = landingpad { ptr, i32 }
          cleanup
  br label %56

51:                                               ; preds = %28
  %52 = landingpad { ptr, i32 }
          cleanup
  br label %55

53:                                               ; preds = %_ZNK5Yosys5RTLIL10AttrObject17get_src_attributeB5cxx11Ev.exit
  %54 = landingpad { ptr, i32 }
          cleanup
  call void @_ZNSt7__cxx1112basic_stringIcSt11char_traitsIcESaIcEED1Ev(ptr noundef nonnull align 8 dereferenceable(32) %9) #22
  br label %55

55:                                               ; preds = %53, %51
  %.pn = phi { ptr, i32 } [ %54, %53 ], [ %52, %51 ]
  call void @_ZN5Yosys5RTLIL8IdStringD2Ev(ptr noundef nonnull align 4 dereferenceable(4) %6) #22
  br label %56

56:                                               ; preds = %55, %49
  %.pn.pn = phi { ptr, i32 } [ %.pn, %55 ], [ %50, %49 ]
  call void @_ZNSt7__cxx1112basic_stringIcSt11char_traitsIcESaIcEED1Ev(ptr noundef nonnull align 8 dereferenceable(32) %7) #22
  br label %57

57:                                               ; preds = %56, %47
  %.pn.pn.pn = phi { ptr, i32 } [ %.pn.pn, %56 ], [ %48, %47 ]
  call void @_ZNSt7__cxx1112basic_stringIcSt11char_traitsIcESaIcEED1Ev(ptr noundef nonnull align 8 dereferenceable(32) %8) #22
  br label %common.resume
}